target datalayout = "e-m:e-p270:32:32-p271:32:32-p272:64:64-i64:64-i128:128-f80:128-n8:16:32:64-S128"
target triple = "x86_64-unknown-linux-gnu"

%struct.EHCIState = type { %struct.USBBus, ptr, ptr, %struct.MemoryRegion, ptr, %struct.MemoryRegion, %struct.MemoryRegion, %struct.MemoryRegion, i32, i8, i16, i16, i16, i16, i32, [16 x i8], %union.anon.5, [6 x i32], ptr, ptr, i8, i32, i32, [6 x %struct.USBPort], [6 x ptr], i32, i32, %union.EHCIQueueHead, %union.EHCIQueueHead, i32, i32, %struct.USBPacket, %struct.QEMUSGList, i64, i32, i32, i8, ptr }
%struct.USBBus = type { %struct.BusState, ptr, i32, i32, i32, %union.anon, %union.anon.0, %union.anon.1 }
%struct.BusState = type { %struct.Object, ptr, ptr, ptr, i32, i8, i8, i32, %union.BusChildHead, %struct.BusStateEntry, %struct.ResettableState }
%struct.Object = type { ptr, ptr, ptr, i32, ptr }
%union.BusChildHead = type { %struct.QTailQLink }
%struct.QTailQLink = type { ptr, ptr }
%struct.BusStateEntry = type { ptr, ptr }
%struct.ResettableState = type { i32, i8, i8 }
%union.anon = type { %struct.QTailQLink }
%union.anon.0 = type { %struct.QTailQLink }
%union.anon.1 = type { %struct.QTailQLink }
%struct.MemoryRegion = type { %struct.Object, i8, i8, i8, i8, i8, i8, i8, i8, i8, i8, ptr, ptr, ptr, ptr, ptr, ptr, i32, i128, i64, ptr, i64, i8, i8, i8, i8, i8, ptr, i64, i32, %union.anon.2, %union.anon.3, %union.anon.4, ptr, i32, ptr, ptr, i8 }
%union.anon.2 = type { %struct.QTailQLink }
%union.anon.3 = type { %struct.QTailQLink }
%union.anon.4 = type { %struct.QTailQLink }
%union.anon.5 = type { [17 x i32] }
%struct.USBPort = type { ptr, i32, i32, [16 x i8], ptr, ptr, i32, %union.anon.6 }
%union.anon.6 = type { %struct.QTailQLink }
%union.EHCIQueueHead = type { %struct.QTailQLink }
%struct.USBPacket = type { i32, i64, ptr, i32, %struct.QEMUIOVector, i64, i8, i8, i32, i32, i32, ptr, %union.anon.10, %union.anon.11 }
%struct.QEMUIOVector = type { ptr, i32, %union.anon.7 }
%union.anon.7 = type { %struct.anon.8 }
%struct.anon.8 = type { i32, %struct.iovec }
%struct.iovec = type { ptr, i64 }
%union.anon.10 = type { %struct.QTailQLink }
%union.anon.11 = type { %struct.QTailQLink }
%struct.QEMUSGList = type { ptr, i32, i32, i64, ptr, ptr }
%struct.anon = type { i32, i32, i32, i32, i32, i32, i32, [9 x i32], i32 }
%struct.timeval = type { i64, i64 }

@trace_events_enabled_count = external global i32, align 4
@message_with_timestamp = external global i8, align 1
@qemu_loglevel = external global i32, align 4
@.str.56 = private unnamed_addr constant [6 x i8] c"async\00", align 1
@.str.57 = private unnamed_addr constant [9 x i8] c"periodic\00", align 1
@_TRACE_USB_EHCI_STATE_DSTATE = external global i16, align 2
@.str.58 = private unnamed_addr constant [44 x i8] c"%d@%zu.%06zu:usb_ehci_state %s schedule %s\0A\00", align 1
@.str.59 = private unnamed_addr constant [31 x i8] c"usb_ehci_state %s schedule %s\0A\00", align 1
@.str.60 = private unnamed_addr constant [8 x i8] c"unknown\00", align 1

; Function Attrs: nounwind sspstrong uwtable
define internal zeroext i1 @qemu_loglevel_mask(i32 noundef %mask) #0 {
entry:
  %mask.addr = alloca i32, align 4
  store i32 %mask, ptr %mask.addr, align 4
  %0 = load i32, ptr @qemu_loglevel, align 4
  %1 = load i32, ptr %mask.addr, align 4
  %and = and i32 %0, %1
  %cmp = icmp ne i32 %and, 0
  ret i1 %cmp
}

; Function Attrs: nounwind sspstrong uwtable
define internal void @_nocheck__trace_usb_ehci_state(ptr noundef %schedule, ptr noundef %state) #0 {
entry:
  %schedule.addr = alloca ptr, align 8
  %state.addr = alloca ptr, align 8
  %_now = alloca %struct.timeval, align 8
  store ptr %schedule, ptr %schedule.addr, align 8
  store ptr %state, ptr %state.addr, align 8
  %0 = load i32, ptr @trace_events_enabled_count, align 4
  %tobool = icmp ne i32 %0, 0
  %lnot = xor i1 %tobool, true
  %lnot1 = xor i1 %lnot, true
  %lnot.ext = zext i1 %lnot1 to i32
  %conv = sext i32 %lnot.ext to i64
  %tobool2 = icmp ne i64 %conv, 0
  br i1 %tobool2, label %land.lhs.true, label %if.end11

land.lhs.true:                                    ; preds = %entry
  %1 = load i16, ptr @_TRACE_USB_EHCI_STATE_DSTATE, align 2
  %conv3 = zext i16 %1 to i32
  %tobool4 = icmp ne i32 %conv3, 0
  br i1 %tobool4, label %land.lhs.true5, label %if.end11

land.lhs.true5:                                   ; preds = %land.lhs.true
  %call = call zeroext i1 @qemu_loglevel_mask(i32 noundef 32768)
  br i1 %call, label %if.then, label %if.end11

if.then:                                          ; preds = %land.lhs.true5
  %2 = load i8, ptr @message_with_timestamp, align 1
  %tobool7 = trunc i8 %2 to i1
  br i1 %tobool7, label %if.then8, label %if.else

if.then8:                                         ; preds = %if.then
  %call9 = call i32 @gettimeofday(ptr noundef %_now, ptr noundef null) #10
  %call10 = call i32 @qemu_get_thread_id()
  %tv_sec = getelementptr inbounds %struct.timeval, ptr %_now, i32 0, i32 0
  %3 = load i64, ptr %tv_sec, align 8
  %tv_usec = getelementptr inbounds %struct.timeval, ptr %_now, i32 0, i32 1
  %4 = load i64, ptr %tv_usec, align 8
  %5 = load ptr, ptr %schedule.addr, align 8
  %6 = load ptr, ptr %state.addr, align 8
  call void (ptr, ...) @qemu_log(ptr noundef @.str.58, i32 noundef %call10, i64 noundef %3, i64 noundef %4, ptr noundef %5, ptr noundef %6)
  br label %if.end

if.else:                                          ; preds = %if.then
  %7 = load ptr, ptr %schedule.addr, align 8
  %8 = load ptr, ptr %state.addr, align 8
  call void (ptr, ...) @qemu_log(ptr noundef @.str.59, ptr noundef %7, ptr noundef %8)
  br label %if.end

if.end:                                           ; preds = %if.else, %if.then8
  br label %if.end11

if.end11:                                         ; preds = %if.end, %land.lhs.true5, %land.lhs.true, %entry
  ret void
}

; Function Attrs: nounwind sspstrong uwtable
define internal ptr @nr2str(ptr noundef %n, i64 noundef %len, i32 noundef %nr) #0 {
entry:
  %retval = alloca ptr, align 8
  %n.addr = alloca ptr, align 8
  %len.addr = alloca i64, align 8
  %nr.addr = alloca i32, align 4
  store ptr %n, ptr %n.addr, align 8
  store i64 %len, ptr %len.addr, align 8
  store i32 %nr, ptr %nr.addr, align 4
  %0 = load i32, ptr %nr.addr, align 4
  %conv = zext i32 %0 to i64
  %1 = load i64, ptr %len.addr, align 8
  %cmp = icmp ult i64 %conv, %1
  br i1 %cmp, label %land.lhs.true, label %if.else

land.lhs.true:                                    ; preds = %entry
  %2 = load ptr, ptr %n.addr, align 8
  %3 = load i32, ptr %nr.addr, align 4
  %idxprom = zext i32 %3 to i64
  %arrayidx = getelementptr ptr, ptr %2, i64 %idxprom
  %4 = load ptr, ptr %arrayidx, align 8
  %cmp2 = icmp ne ptr %4, null
  br i1 %cmp2, label %if.then, label %if.else

if.then:                                          ; preds = %land.lhs.true
  %5 = load ptr, ptr %n.addr, align 8
  %6 = load i32, ptr %nr.addr, align 4
  %idxprom4 = zext i32 %6 to i64
  %arrayidx5 = getelementptr ptr, ptr %5, i64 %idxprom4
  %7 = load ptr, ptr %arrayidx5, align 8
  store ptr %7, ptr %retval, align 8
  br label %return

if.else:                                          ; preds = %land.lhs.true, %entry
  store ptr @.str.60, ptr %retval, align 8
  br label %return

return:                                           ; preds = %if.else, %if.then
  %8 = load ptr, ptr %retval, align 8
  ret ptr %8
}

; Function Attrs: nounwind sspstrong uwtable
define internal void @ehci_set_usbsts(ptr noundef %s, i32 noundef %mask) #0 {
entry:
  %s.addr = alloca ptr, align 8
  %mask.addr = alloca i32, align 4
  store ptr %s, ptr %s.addr, align 8
  store i32 %mask, ptr %mask.addr, align 4
  %0 = load ptr, ptr %s.addr, align 8
  %1 = getelementptr inbounds %struct.EHCIState, ptr %0, i32 0, i32 16
  %usbsts = getelementptr inbounds %struct.anon, ptr %1, i32 0, i32 1
  %2 = load i32, ptr %usbsts, align 4
  %3 = load i32, ptr %mask.addr, align 4
  %and = and i32 %2, %3
  %4 = load i32, ptr %mask.addr, align 4
  %cmp = icmp eq i32 %and, %4
  br i1 %cmp, label %if.then, label %if.end

if.then:                                          ; preds = %entry
  br label %return

if.end:                                           ; preds = %entry
  %5 = load i32, ptr %mask.addr, align 4
  call void @ehci_trace_usbsts(i32 noundef %5, i32 noundef 1)
  %6 = load i32, ptr %mask.addr, align 4
  %7 = load ptr, ptr %s.addr, align 8
  %8 = getelementptr inbounds %struct.EHCIState, ptr %7, i32 0, i32 16
  %usbsts1 = getelementptr inbounds %struct.anon, ptr %8, i32 0, i32 1
  %9 = load i32, ptr %usbsts1, align 4
  %or = or i32 %9, %6
  store i32 %or, ptr %usbsts1, align 4
  br label %return

return:                                           ; preds = %if.end, %if.then
  ret void
}

; Function Attrs: nounwind sspstrong uwtable
define internal void @ehci_update_halt(ptr noundef %s) #0 {
entry:
  %s.addr = alloca ptr, align 8
  store ptr %s, ptr %s.addr, align 8
  %0 = load ptr, ptr %s.addr, align 8
  %1 = getelementptr inbounds %struct.EHCIState, ptr %0, i32 0, i32 16
  %usbcmd = getelementptr inbounds %struct.anon, ptr %1, i32 0, i32 0
  %2 = load i32, ptr %usbcmd, align 4
  %and = and i32 %2, 1
  %tobool = icmp ne i32 %and, 0
  br i1 %tobool, label %if.then, label %if.else

if.then:                                          ; preds = %entry
  %3 = load ptr, ptr %s.addr, align 8
  call void @ehci_clear_usbsts(ptr noundef %3, i32 noundef 4096)
  br label %if.end3

if.else:                                          ; preds = %entry
  %4 = load ptr, ptr %s.addr, align 8
  %astate = getelementptr inbounds %struct.EHCIState, ptr %4, i32 0, i32 21
  %5 = load i32, ptr %astate, align 4
  %cmp = icmp eq i32 %5, 1000
  br i1 %cmp, label %land.lhs.true, label %if.end

land.lhs.true:                                    ; preds = %if.else
  %6 = load ptr, ptr %s.addr, align 8
  %pstate = getelementptr inbounds %struct.EHCIState, ptr %6, i32 0, i32 22
  %7 = load i32, ptr %pstate, align 8
  %cmp1 = icmp eq i32 %7, 1000
  br i1 %cmp1, label %if.then2, label %if.end

if.then2:                                         ; preds = %land.lhs.true
  %8 = load ptr, ptr %s.addr, align 8
  call void @ehci_set_usbsts(ptr noundef %8, i32 noundef 4096)
  br label %if.end

if.end:                                           ; preds = %if.then2, %land.lhs.true, %if.else
  br label %if.end3

if.end3:                                          ; preds = %if.end, %if.then
  ret void
}

; Function Attrs: nounwind sspstrong uwtable
define internal void @ehci_clear_usbsts(ptr noundef %s, i32 noundef %mask) #0 {
entry:
  %s.addr = alloca ptr, align 8
  %mask.addr = alloca i32, align 4
  store ptr %s, ptr %s.addr, align 8
  store i32 %mask, ptr %mask.addr, align 4
  %0 = load ptr, ptr %s.addr, align 8
  %1 = getelementptr inbounds %struct.EHCIState, ptr %0, i32 0, i32 16
  %usbsts = getelementptr inbounds %struct.anon, ptr %1, i32 0, i32 1
  %2 = load i32, ptr %usbsts, align 4
  %3 = load i32, ptr %mask.addr, align 4
  %and = and i32 %2, %3
  %cmp = icmp eq i32 %and, 0
  br i1 %cmp, label %if.then, label %if.end

if.then:                                          ; preds = %entry
  br label %return

if.end:                                           ; preds = %entry
  %4 = load i32, ptr %mask.addr, align 4
  call void @ehci_trace_usbsts(i32 noundef %4, i32 noundef 0)
  %5 = load i32, ptr %mask.addr, align 4
  %not = xor i32 %5, -1
  %6 = load ptr, ptr %s.addr, align 8
  %7 = getelementptr inbounds %struct.EHCIState, ptr %6, i32 0, i32 16
  %usbsts1 = getelementptr inbounds %struct.anon, ptr %7, i32 0, i32 1
  %8 = load i32, ptr %usbsts1, align 4
  %and2 = and i32 %8, %not
  store i32 %and2, ptr %usbsts1, align 4
  br label %return

return:                                           ; preds = %if.end, %if.then
  ret void
}

; Function Attrs: nounwind sspstrong uwtable
define internal void @trace_usb_ehci_state(ptr noundef %schedule, ptr noundef %state) #0 {
entry:
  %schedule.addr = alloca ptr, align 8
  %state.addr = alloca ptr, align 8
  store ptr %schedule, ptr %schedule.addr, align 8
  store ptr %state, ptr %state.addr, align 8
  %0 = load ptr, ptr %schedule.addr, align 8
  %1 = load ptr, ptr %state.addr, align 8
  call void @_nocheck__trace_usb_ehci_state(ptr noundef %0, ptr noundef %1)
  ret void
}

; Function Attrs: nounwind sspstrong uwtable
define internal ptr @state2str(i32 noundef %state) #0 {
entry:
  %state.addr = alloca i32, align 4
  store i32 %state, ptr %state.addr, align 4
  %0 = load i32, ptr %state.addr, align 4
  %call = call ptr @nr2str(ptr noundef @ehci_state_names, i64 noundef 1014, i32 noundef %0)
  ret ptr %call
}

; Function Attrs: nounwind sspstrong uwtable
define internal void @ehci_set_state(ptr noundef %s, i32 noundef %async, i32 noundef %state) #0 {
entry:
  %s.addr = alloca ptr, align 8
  %async.addr = alloca i32, align 4
  %state.addr = alloca i32, align 4
  store ptr %s, ptr %s.addr, align 8
  store i32 %async, ptr %async.addr, align 4
  store i32 %state, ptr %state.addr, align 4
  %0 = load i32, ptr %async.addr, align 4
  %tobool = icmp ne i32 %0, 0
  br i1 %tobool, label %if.then, label %if.else3

if.then:                                          ; preds = %entry
  %1 = load i32, ptr %state.addr, align 4
  %call = call ptr @state2str(i32 noundef %1)
  call void @trace_usb_ehci_state(ptr noundef @.str.56, ptr noundef %call)
  %2 = load i32, ptr %state.addr, align 4
  %3 = load ptr, ptr %s.addr, align 8
  %astate = getelementptr inbounds %struct.EHCIState, ptr %3, i32 0, i32 21
  store i32 %2, ptr %astate, align 4
  %4 = load ptr, ptr %s.addr, align 8
  %astate1 = getelementptr inbounds %struct.EHCIState, ptr %4, i32 0, i32 21
  %5 = load i32, ptr %astate1, align 4
  %cmp = icmp eq i32 %5, 1000
  br i1 %cmp, label %if.then2, label %if.else

if.then2:                                         ; preds = %if.then
  %6 = load ptr, ptr %s.addr, align 8
  call void @ehci_clear_usbsts(ptr noundef %6, i32 noundef 32768)
  %7 = load ptr, ptr %s.addr, align 8
  call void @ehci_update_halt(ptr noundef %7)
  br label %if.end

if.else:                                          ; preds = %if.then
  %8 = load ptr, ptr %s.addr, align 8
  call void @ehci_set_usbsts(ptr noundef %8, i32 noundef 32768)
  br label %if.end

if.end:                                           ; preds = %if.else, %if.then2
  br label %if.end10

if.else3:                                         ; preds = %entry
  %9 = load i32, ptr %state.addr, align 4
  %call4 = call ptr @state2str(i32 noundef %9)
  call void @trace_usb_ehci_state(ptr noundef @.str.57, ptr noundef %call4)
  %10 = load i32, ptr %state.addr, align 4
  %11 = load ptr, ptr %s.addr, align 8
  %pstate = getelementptr inbounds %struct.EHCIState, ptr %11, i32 0, i32 22
  store i32 %10, ptr %pstate, align 8
  %12 = load ptr, ptr %s.addr, align 8
  %pstate5 = getelementptr inbounds %struct.EHCIState, ptr %12, i32 0, i32 22
  %13 = load i32, ptr %pstate5, align 8
  %cmp6 = icmp eq i32 %13, 1000
  br i1 %cmp6, label %if.then7, label %if.else8

if.then7:                                         ; preds = %if.else3
  %14 = load ptr, ptr %s.addr, align 8
  call void @ehci_clear_usbsts(ptr noundef %14, i32 noundef 16384)
  %15 = load ptr, ptr %s.addr, align 8
  call void @ehci_update_halt(ptr noundef %15)
  br label %if.end9

if.else8:                                         ; preds = %if.else3
  %16 = load ptr, ptr %s.addr, align 8
  call void @ehci_set_usbsts(ptr noundef %16, i32 noundef 16384)
  br label %if.end9

if.end9:                                          ; preds = %if.else8, %if.then7
  br label %if.end10

if.end10:                                         ; preds = %if.end9, %if.end
  ret void
}