; Function Attrs: nounwind sspstrong uwtable
define internal fastcc void @ehci_set_state(ptr noundef captures(none) %s, i32 noundef %async, i32 noundef %state) unnamed_addr #0 {
entry:
  %_now.i.i29 = alloca %struct.timeval, align 8
  %_now.i.i = alloca %struct.timeval, align 8
  %tobool.not = icmp eq i32 %async, 0
  %cmp.i.i21 = icmp ult i32 %state, 1014
  br i1 %tobool.not, label %if.else3, label %if.then

if.then:                                          ; preds = %entry
  br i1 %cmp.i.i21, label %land.lhs.true.i.i, label %if.else.i.i

land.lhs.true.i.i:                                ; preds = %if.then
  %conv.i.i = zext nneg i32 %state to i64
  %arrayidx.i.i = getelementptr ptr, ptr @ehci_state_names, i64 %conv.i.i
  %0 = load ptr, ptr %arrayidx.i.i, align 8
  %cmp2.not.i.i = icmp eq ptr %0, null
  br i1 %cmp2.not.i.i, label %if.else.i.i, label %state2str.exit

if.else.i.i:                                      ; preds = %land.lhs.true.i.i, %if.then
  br label %state2str.exit

state2str.exit:                                   ; preds = %land.lhs.true.i.i, %if.else.i.i
  %retval.0.i.i = phi ptr [ @.str.60, %if.else.i.i ], [ %0, %land.lhs.true.i.i ]
  call void @llvm.lifetime.start.p0(i64 16, ptr nonnull %_now.i.i)
  %1 = load i32, ptr @trace_events_enabled_count, align 4
  %tobool.i.i = icmp ne i32 %1, 0
  %2 = load i16, ptr @_TRACE_USB_EHCI_STATE_DSTATE, align 2
  %tobool4.i.i = icmp ne i16 %2, 0
  %or.cond.i.i = select i1 %tobool.i.i, i1 %tobool4.i.i, i1 false
  br i1 %or.cond.i.i, label %land.lhs.true5.i.i, label %trace_usb_ehci_state.exit

land.lhs.true5.i.i:                               ; preds = %state2str.exit
  %3 = load i32, ptr @qemu_loglevel, align 4
  %and.i.i.i = and i32 %3, 32768
  %cmp.i.not.i.i = icmp eq i32 %and.i.i.i, 0
  br i1 %cmp.i.not.i.i, label %trace_usb_ehci_state.exit, label %if.then.i.i

if.then.i.i:                                      ; preds = %land.lhs.true5.i.i
  %4 = load i8, ptr @message_with_timestamp, align 1
  %tobool7.i.i = trunc i8 %4 to i1
  br i1 %tobool7.i.i, label %if.then8.i.i, label %if.else.i.i13

if.then8.i.i:                                     ; preds = %if.then.i.i
  %call9.i.i = call i32 @gettimeofday(ptr noundef nonnull %_now.i.i, ptr noundef null) #17
  %call10.i.i = tail call i32 @qemu_get_thread_id() #17
  %5 = load i64, ptr %_now.i.i, align 8
  %tv_usec.i.i = getelementptr inbounds nuw i8, ptr %_now.i.i, i64 8
  %6 = load i64, ptr %tv_usec.i.i, align 8
  tail call void (ptr, ...) @qemu_log(ptr noundef nonnull @.str.58, i32 noundef %call10.i.i, i64 noundef %5, i64 noundef %6, ptr noundef nonnull @.str.56, ptr noundef nonnull %retval.0.i.i) #17
  br label %trace_usb_ehci_state.exit

if.else.i.i13:                                    ; preds = %if.then.i.i
  tail call void (ptr, ...) @qemu_log(ptr noundef nonnull @.str.59, ptr noundef nonnull @.str.56, ptr noundef nonnull %retval.0.i.i) #17
  br label %trace_usb_ehci_state.exit

trace_usb_ehci_state.exit:                        ; preds = %state2str.exit, %land.lhs.true5.i.i, %if.then8.i.i, %if.else.i.i13
  call void @llvm.lifetime.end.p0(i64 16, ptr nonnull %_now.i.i)
  %astate = getelementptr inbounds nuw i8, ptr %s, i64 1460
  store i32 %state, ptr %astate, align 4
  %cmp = icmp eq i32 %state, 1000
  %usbsts.i = getelementptr inbounds nuw i8, ptr %s, i64 1352
  %7 = load i32, ptr %usbsts.i, align 4
  %and.i = and i32 %7, 32768
  %cmp.i = icmp eq i32 %and.i, 0
  br i1 %cmp, label %if.then2, label %if.else

if.then2:                                         ; preds = %trace_usb_ehci_state.exit
  br i1 %cmp.i, label %ehci_clear_usbsts.exit, label %if.end.i

if.end.i:                                         ; preds = %if.then2
  tail call fastcc void @ehci_trace_usbsts(i32 noundef 32768, i32 noundef 0)
  %8 = load i32, ptr %usbsts.i, align 4
  %and2.i = and i32 %8, -32769
  store i32 %and2.i, ptr %usbsts.i, align 4
  br label %ehci_clear_usbsts.exit

ehci_clear_usbsts.exit:                           ; preds = %if.then2, %if.end.i
  %9 = phi i32 [ %7, %if.then2 ], [ %and2.i, %if.end.i ]
  %10 = getelementptr inbounds nuw i8, ptr %s, i64 1348
  %11 = load i32, ptr %10, align 4
  %and.i14 = and i32 %11, 1
  %tobool.not.i = icmp eq i32 %and.i14, 0
  br i1 %tobool.not.i, label %if.else.i, label %if.then.i

if.then.i:                                        ; preds = %ehci_clear_usbsts.exit
  %and.i.i = and i32 %9, 4096
  %cmp.i.i15 = icmp eq i32 %and.i.i, 0
  br i1 %cmp.i.i15, label %if.end10, label %if.end.i.i

if.end.i.i:                                       ; preds = %if.then.i
  tail call fastcc void @ehci_trace_usbsts(i32 noundef 4096, i32 noundef 0)
  %12 = load i32, ptr %usbsts.i, align 4
  %and2.i.i = and i32 %12, -4097
  store i32 %and2.i.i, ptr %usbsts.i, align 4
  br label %if.end10

if.else.i:                                        ; preds = %ehci_clear_usbsts.exit
  %13 = load i32, ptr %astate, align 4
  %cmp.i16 = icmp eq i32 %13, 1000
  br i1 %cmp.i16, label %land.lhs.true.i, label %if.end10

land.lhs.true.i:                                  ; preds = %if.else.i
  %pstate.i = getelementptr inbounds nuw i8, ptr %s, i64 1464
  %14 = load i32, ptr %pstate.i, align 8
  %cmp1.i = icmp eq i32 %14, 1000
  %and.i6.i = and i32 %9, 4096
  %cmp.i7.not.i = icmp eq i32 %and.i6.i, 0
  %or.cond = select i1 %cmp1.i, i1 %cmp.i7.not.i, i1 false
  br i1 %or.cond, label %if.end.i8.i, label %if.end10

if.end.i8.i:                                      ; preds = %land.lhs.true.i
  tail call fastcc void @ehci_trace_usbsts(i32 noundef 4096, i32 noundef 1)
  %15 = load i32, ptr %usbsts.i, align 4
  %or.i.i = or i32 %15, 4096
  store i32 %or.i.i, ptr %usbsts.i, align 4
  br label %if.end10

if.else:                                          ; preds = %trace_usb_ehci_state.exit
  br i1 %cmp.i, label %if.end.i20, label %if.end10

if.end.i20:                                       ; preds = %if.else
  tail call fastcc void @ehci_trace_usbsts(i32 noundef 32768, i32 noundef 1)
  %16 = load i32, ptr %usbsts.i, align 4
  %or.i = or i32 %16, 32768
  store i32 %or.i, ptr %usbsts.i, align 4
  br label %if.end10

if.else3:                                         ; preds = %entry
  br i1 %cmp.i.i21, label %land.lhs.true.i.i24, label %if.else.i.i22

land.lhs.true.i.i24:                              ; preds = %if.else3
  %conv.i.i25 = zext nneg i32 %state to i64
  %arrayidx.i.i26 = getelementptr ptr, ptr @ehci_state_names, i64 %conv.i.i25
  %17 = load ptr, ptr %arrayidx.i.i26, align 8
  %cmp2.not.i.i27 = icmp eq ptr %17, null
  br i1 %cmp2.not.i.i27, label %if.else.i.i22, label %state2str.exit28

if.else.i.i22:                                    ; preds = %land.lhs.true.i.i24, %if.else3
  br label %state2str.exit28

state2str.exit28:                                 ; preds = %land.lhs.true.i.i24, %if.else.i.i22
  %retval.0.i.i23 = phi ptr [ @.str.60, %if.else.i.i22 ], [ %17, %land.lhs.true.i.i24 ]
  call void @llvm.lifetime.start.p0(i64 16, ptr nonnull %_now.i.i29)
  %18 = load i32, ptr @trace_events_enabled_count, align 4
  %tobool.i.i30 = icmp ne i32 %18, 0
  %19 = load i16, ptr @_TRACE_USB_EHCI_STATE_DSTATE, align 2
  %tobool4.i.i31 = icmp ne i16 %19, 0
  %or.cond.i.i32 = select i1 %tobool.i.i30, i1 %tobool4.i.i31, i1 false
  br i1 %or.cond.i.i32, label %land.lhs.true5.i.i33, label %trace_usb_ehci_state.exit43

land.lhs.true5.i.i33:                             ; preds = %state2str.exit28
  %20 = load i32, ptr @qemu_loglevel, align 4
  %and.i.i.i34 = and i32 %20, 32768
  %cmp.i.not.i.i35 = icmp eq i32 %and.i.i.i34, 0
  br i1 %cmp.i.not.i.i35, label %trace_usb_ehci_state.exit43, label %if.then.i.i36

if.then.i.i36:                                    ; preds = %land.lhs.true5.i.i33
  %21 = load i8, ptr @message_with_timestamp, align 1
  %tobool7.i.i37 = trunc i8 %21 to i1
  br i1 %tobool7.i.i37, label %if.then8.i.i39, label %if.else.i.i38

if.then8.i.i39:                                   ; preds = %if.then.i.i36
  %call9.i.i40 = call i32 @gettimeofday(ptr noundef nonnull %_now.i.i29, ptr noundef null) #17
  %call10.i.i41 = tail call i32 @qemu_get_thread_id() #17
  %22 = load i64, ptr %_now.i.i29, align 8
  %tv_usec.i.i42 = getelementptr inbounds nuw i8, ptr %_now.i.i29, i64 8
  %23 = load i64, ptr %tv_usec.i.i42, align 8
  tail call void (ptr, ...) @qemu_log(ptr noundef nonnull @.str.58, i32 noundef %call10.i.i41, i64 noundef %22, i64 noundef %23, ptr noundef nonnull @.str.57, ptr noundef nonnull %retval.0.i.i23) #17
  br label %trace_usb_ehci_state.exit43

if.else.i.i38:                                    ; preds = %if.then.i.i36
  tail call void (ptr, ...) @qemu_log(ptr noundef nonnull @.str.59, ptr noundef nonnull @.str.57, ptr noundef nonnull %retval.0.i.i23) #17
  br label %trace_usb_ehci_state.exit43

trace_usb_ehci_state.exit43:                      ; preds = %state2str.exit28, %land.lhs.true5.i.i33, %if.then8.i.i39, %if.else.i.i38
  call void @llvm.lifetime.end.p0(i64 16, ptr nonnull %_now.i.i29)
  %pstate = getelementptr inbounds nuw i8, ptr %s, i64 1464
  store i32 %state, ptr %pstate, align 8
  %cmp6 = icmp eq i32 %state, 1000
  %usbsts.i44 = getelementptr inbounds nuw i8, ptr %s, i64 1352
  %24 = load i32, ptr %usbsts.i44, align 4
  %and.i45 = and i32 %24, 16384
  %cmp.i46 = icmp eq i32 %and.i45, 0
  br i1 %cmp6, label %if.then7, label %if.else8

if.then7:                                         ; preds = %trace_usb_ehci_state.exit43
  br i1 %cmp.i46, label %ehci_clear_usbsts.exit49, label %if.end.i47

if.end.i47:                                       ; preds = %if.then7
  tail call fastcc void @ehci_trace_usbsts(i32 noundef 16384, i32 noundef 0)
  %25 = load i32, ptr %usbsts.i44, align 4
  %and2.i48 = and i32 %25, -16385
  store i32 %and2.i48, ptr %usbsts.i44, align 4
  br label %ehci_clear_usbsts.exit49

ehci_clear_usbsts.exit49:                         ; preds = %if.then7, %if.end.i47
  %26 = phi i32 [ %24, %if.then7 ], [ %and2.i48, %if.end.i47 ]
  %27 = getelementptr inbounds nuw i8, ptr %s, i64 1348
  %28 = load i32, ptr %27, align 4
  %and.i50 = and i32 %28, 1
  %tobool.not.i51 = icmp eq i32 %and.i50, 0
  br i1 %tobool.not.i51, label %if.else.i58, label %if.then.i52

if.then.i52:                                      ; preds = %ehci_clear_usbsts.exit49
  %and.i.i54 = and i32 %26, 4096
  %cmp.i.i55 = icmp eq i32 %and.i.i54, 0
  br i1 %cmp.i.i55, label %if.end10, label %if.end.i.i56

if.end.i.i56:                                     ; preds = %if.then.i52
  tail call fastcc void @ehci_trace_usbsts(i32 noundef 4096, i32 noundef 0)
  %29 = load i32, ptr %usbsts.i44, align 4
  %and2.i.i57 = and i32 %29, -4097
  store i32 %and2.i.i57, ptr %usbsts.i44, align 4
  br label %if.end10

if.else.i58:                                      ; preds = %ehci_clear_usbsts.exit49
  %astate.i59 = getelementptr inbounds nuw i8, ptr %s, i64 1460
  %30 = load i32, ptr %astate.i59, align 4
  %cmp.i60 = icmp eq i32 %30, 1000
  br i1 %cmp.i60, label %land.lhs.true.i61, label %if.end10

land.lhs.true.i61:                                ; preds = %if.else.i58
  %31 = load i32, ptr %pstate, align 8
  %cmp1.i63 = icmp eq i32 %31, 1000
  %and.i6.i66 = and i32 %26, 4096
  %cmp.i7.not.i67 = icmp eq i32 %and.i6.i66, 0
  %or.cond77 = select i1 %cmp1.i63, i1 %cmp.i7.not.i67, i1 false
  br i1 %or.cond77, label %if.end.i8.i68, label %if.end10

if.end.i8.i68:                                    ; preds = %land.lhs.true.i61
  tail call fastcc void @ehci_trace_usbsts(i32 noundef 4096, i32 noundef 1)
  %32 = load i32, ptr %usbsts.i44, align 4
  %or.i.i69 = or i32 %32, 4096
  store i32 %or.i.i69, ptr %usbsts.i44, align 4
  br label %if.end10

if.else8:                                         ; preds = %trace_usb_ehci_state.exit43
  br i1 %cmp.i46, label %if.end.i74, label %if.end10

if.end.i74:                                       ; preds = %if.else8
  tail call fastcc void @ehci_trace_usbsts(i32 noundef 16384, i32 noundef 1)
  %33 = load i32, ptr %usbsts.i44, align 4
  %or.i75 = or i32 %33, 16384
  store i32 %or.i75, ptr %usbsts.i44, align 4
  br label %if.end10

if.end10:                                         ; preds = %if.end.i74, %if.else8, %if.end.i8.i68, %land.lhs.true.i61, %if.else.i58, %if.end.i.i56, %if.then.i52, %if.end.i20, %if.else, %if.end.i8.i, %land.lhs.true.i, %if.else.i, %if.end.i.i, %if.then.i
  ret void
}